ARM GAS  C:\Users\kotaro\AppData\Local\Temp\cc66vp1L.s 			page 1


   1              		.cpu cortex-m4
   2              		.eabi_attribute 27, 1
   3              		.eabi_attribute 28, 1
   4              		.eabi_attribute 20, 1
   5              		.eabi_attribute 21, 1
   6              		.eabi_attribute 23, 3
   7              		.eabi_attribute 24, 1
   8              		.eabi_attribute 25, 1
   9              		.eabi_attribute 26, 1
  10              		.eabi_attribute 30, 1
  11              		.eabi_attribute 34, 1
  12              		.eabi_attribute 18, 4
  13              		.file	"tim.c"
  14              		.text
  15              	.Ltext0:
  16              		.cfi_sections	.debug_frame
  17              		.section	.text.HAL_TIM_PWM_MspInit,"ax",%progbits
  18              		.align	1
  19              		.global	HAL_TIM_PWM_MspInit
  20              		.syntax unified
  21              		.thumb
  22              		.thumb_func
  23              		.fpu fpv4-sp-d16
  25              	HAL_TIM_PWM_MspInit:
  26              	.LFB161:
  27              		.file 1 "Src/tim.c"
   1:Src/tim.c     **** /**
   2:Src/tim.c     ****   ******************************************************************************
   3:Src/tim.c     ****   * File Name          : TIM.c
   4:Src/tim.c     ****   * Description        : This file provides code for the configuration
   5:Src/tim.c     ****   *                      of the TIM instances.
   6:Src/tim.c     ****   ******************************************************************************
   7:Src/tim.c     ****   ** This notice applies to any and all portions of this file
   8:Src/tim.c     ****   * that are not between comment pairs USER CODE BEGIN and
   9:Src/tim.c     ****   * USER CODE END. Other portions of this file, whether 
  10:Src/tim.c     ****   * inserted by the user or by software development tools
  11:Src/tim.c     ****   * are owned by their respective copyright owners.
  12:Src/tim.c     ****   *
  13:Src/tim.c     ****   * COPYRIGHT(c) 2021 STMicroelectronics
  14:Src/tim.c     ****   *
  15:Src/tim.c     ****   * Redistribution and use in source and binary forms, with or without modification,
  16:Src/tim.c     ****   * are permitted provided that the following conditions are met:
  17:Src/tim.c     ****   *   1. Redistributions of source code must retain the above copyright notice,
  18:Src/tim.c     ****   *      this list of conditions and the following disclaimer.
  19:Src/tim.c     ****   *   2. Redistributions in binary form must reproduce the above copyright notice,
  20:Src/tim.c     ****   *      this list of conditions and the following disclaimer in the documentation
  21:Src/tim.c     ****   *      and/or other materials provided with the distribution.
  22:Src/tim.c     ****   *   3. Neither the name of STMicroelectronics nor the names of its contributors
  23:Src/tim.c     ****   *      may be used to endorse or promote products derived from this software
  24:Src/tim.c     ****   *      without specific prior written permission.
  25:Src/tim.c     ****   *
  26:Src/tim.c     ****   * THIS SOFTWARE IS PROVIDED BY THE COPYRIGHT HOLDERS AND CONTRIBUTORS "AS IS"
  27:Src/tim.c     ****   * AND ANY EXPRESS OR IMPLIED WARRANTIES, INCLUDING, BUT NOT LIMITED TO, THE
  28:Src/tim.c     ****   * IMPLIED WARRANTIES OF MERCHANTABILITY AND FITNESS FOR A PARTICULAR PURPOSE ARE
  29:Src/tim.c     ****   * DISCLAIMED. IN NO EVENT SHALL THE COPYRIGHT HOLDER OR CONTRIBUTORS BE LIABLE
  30:Src/tim.c     ****   * FOR ANY DIRECT, INDIRECT, INCIDENTAL, SPECIAL, EXEMPLARY, OR CONSEQUENTIAL
  31:Src/tim.c     ****   * DAMAGES (INCLUDING, BUT NOT LIMITED TO, PROCUREMENT OF SUBSTITUTE GOODS OR
ARM GAS  C:\Users\kotaro\AppData\Local\Temp\cc66vp1L.s 			page 2


  32:Src/tim.c     ****   * SERVICES; LOSS OF USE, DATA, OR PROFITS; OR BUSINESS INTERRUPTION) HOWEVER
  33:Src/tim.c     ****   * CAUSED AND ON ANY THEORY OF LIABILITY, WHETHER IN CONTRACT, STRICT LIABILITY,
  34:Src/tim.c     ****   * OR TORT (INCLUDING NEGLIGENCE OR OTHERWISE) ARISING IN ANY WAY OUT OF THE USE
  35:Src/tim.c     ****   * OF THIS SOFTWARE, EVEN IF ADVISED OF THE POSSIBILITY OF SUCH DAMAGE.
  36:Src/tim.c     ****   *
  37:Src/tim.c     ****   ******************************************************************************
  38:Src/tim.c     ****   */
  39:Src/tim.c     **** 
  40:Src/tim.c     **** /* Includes ------------------------------------------------------------------*/
  41:Src/tim.c     **** #include "tim.h"
  42:Src/tim.c     **** 
  43:Src/tim.c     **** /* USER CODE BEGIN 0 */
  44:Src/tim.c     **** #include "arm_math.h"
  45:Src/tim.c     **** 
  46:Src/tim.c     **** TIM_MasterConfigTypeDef sMasterConfig;
  47:Src/tim.c     **** TIM_OC_InitTypeDef sConfigOC;
  48:Src/tim.c     **** /* USER CODE END 0 */
  49:Src/tim.c     **** 
  50:Src/tim.c     **** TIM_HandleTypeDef htim2;
  51:Src/tim.c     **** TIM_HandleTypeDef htim4;
  52:Src/tim.c     **** 
  53:Src/tim.c     **** /* TIM2 init function */
  54:Src/tim.c     **** void MX_TIM2_Init(void)
  55:Src/tim.c     **** {
  56:Src/tim.c     ****   TIM_MasterConfigTypeDef sMasterConfig;
  57:Src/tim.c     ****   TIM_OC_InitTypeDef sConfigOC;
  58:Src/tim.c     **** 
  59:Src/tim.c     ****   htim2.Instance = TIM2;
  60:Src/tim.c     ****   htim2.Init.Prescaler = 0;
  61:Src/tim.c     ****   htim2.Init.CounterMode = TIM_COUNTERMODE_UP;
  62:Src/tim.c     ****   htim2.Init.Period = 10;
  63:Src/tim.c     ****   htim2.Init.ClockDivision = TIM_CLOCKDIVISION_DIV1;
  64:Src/tim.c     ****   if (HAL_TIM_PWM_Init(&htim2) != HAL_OK)
  65:Src/tim.c     ****   {
  66:Src/tim.c     ****     _Error_Handler(__FILE__, __LINE__);
  67:Src/tim.c     ****   }
  68:Src/tim.c     **** 
  69:Src/tim.c     ****   sMasterConfig.MasterOutputTrigger = TIM_TRGO_RESET;
  70:Src/tim.c     ****   sMasterConfig.MasterSlaveMode = TIM_MASTERSLAVEMODE_DISABLE;
  71:Src/tim.c     ****   if (HAL_TIMEx_MasterConfigSynchronization(&htim2, &sMasterConfig) != HAL_OK)
  72:Src/tim.c     ****   {
  73:Src/tim.c     ****     _Error_Handler(__FILE__, __LINE__);
  74:Src/tim.c     ****   }
  75:Src/tim.c     **** 
  76:Src/tim.c     ****   sConfigOC.OCMode = TIM_OCMODE_PWM1;
  77:Src/tim.c     ****   sConfigOC.Pulse = 0;
  78:Src/tim.c     ****   sConfigOC.OCPolarity = TIM_OCPOLARITY_HIGH;
  79:Src/tim.c     ****   sConfigOC.OCFastMode = TIM_OCFAST_DISABLE;
  80:Src/tim.c     ****   if (HAL_TIM_PWM_ConfigChannel(&htim2, &sConfigOC, TIM_CHANNEL_1) != HAL_OK)
  81:Src/tim.c     ****   {
  82:Src/tim.c     ****     _Error_Handler(__FILE__, __LINE__);
  83:Src/tim.c     ****   }
  84:Src/tim.c     **** 
  85:Src/tim.c     ****   HAL_TIM_MspPostInit(&htim2);
  86:Src/tim.c     **** 
  87:Src/tim.c     **** }
  88:Src/tim.c     **** /* TIM4 init function */
ARM GAS  C:\Users\kotaro\AppData\Local\Temp\cc66vp1L.s 			page 3


  89:Src/tim.c     **** void MX_TIM4_Init(void)
  90:Src/tim.c     **** {
  91:Src/tim.c     ****   TIM_MasterConfigTypeDef sMasterConfig;
  92:Src/tim.c     ****   TIM_OC_InitTypeDef sConfigOC;
  93:Src/tim.c     **** 
  94:Src/tim.c     ****   htim4.Instance = TIM4;
  95:Src/tim.c     ****   htim4.Init.Prescaler = 0;
  96:Src/tim.c     ****   htim4.Init.CounterMode = TIM_COUNTERMODE_UP;
  97:Src/tim.c     ****   htim4.Init.Period = 399;
  98:Src/tim.c     ****   htim4.Init.ClockDivision = TIM_CLOCKDIVISION_DIV1;
  99:Src/tim.c     ****   if (HAL_TIM_PWM_Init(&htim4) != HAL_OK)
 100:Src/tim.c     ****   {
 101:Src/tim.c     ****     _Error_Handler(__FILE__, __LINE__);
 102:Src/tim.c     ****   }
 103:Src/tim.c     **** 
 104:Src/tim.c     ****   sMasterConfig.MasterOutputTrigger = TIM_TRGO_RESET;
 105:Src/tim.c     ****   sMasterConfig.MasterSlaveMode = TIM_MASTERSLAVEMODE_DISABLE;
 106:Src/tim.c     ****   if (HAL_TIMEx_MasterConfigSynchronization(&htim4, &sMasterConfig) != HAL_OK)
 107:Src/tim.c     ****   {
 108:Src/tim.c     ****     _Error_Handler(__FILE__, __LINE__);
 109:Src/tim.c     ****   }
 110:Src/tim.c     **** 
 111:Src/tim.c     ****   sConfigOC.OCMode = TIM_OCMODE_PWM1;
 112:Src/tim.c     ****   sConfigOC.Pulse = 0;
 113:Src/tim.c     ****   sConfigOC.OCPolarity = TIM_OCPOLARITY_HIGH;
 114:Src/tim.c     ****   sConfigOC.OCFastMode = TIM_OCFAST_DISABLE;
 115:Src/tim.c     ****   if (HAL_TIM_PWM_ConfigChannel(&htim4, &sConfigOC, TIM_CHANNEL_2) != HAL_OK)
 116:Src/tim.c     ****   {
 117:Src/tim.c     ****     _Error_Handler(__FILE__, __LINE__);
 118:Src/tim.c     ****   }
 119:Src/tim.c     **** 
 120:Src/tim.c     ****   if (HAL_TIM_PWM_ConfigChannel(&htim4, &sConfigOC, TIM_CHANNEL_4) != HAL_OK)
 121:Src/tim.c     ****   {
 122:Src/tim.c     ****     _Error_Handler(__FILE__, __LINE__);
 123:Src/tim.c     ****   }
 124:Src/tim.c     **** 
 125:Src/tim.c     ****   HAL_TIM_MspPostInit(&htim4);
 126:Src/tim.c     **** 
 127:Src/tim.c     **** }
 128:Src/tim.c     **** 
 129:Src/tim.c     **** void HAL_TIM_PWM_MspInit(TIM_HandleTypeDef* tim_pwmHandle)
 130:Src/tim.c     **** {
  28              		.loc 1 130 0
  29              		.cfi_startproc
  30              		@ args = 0, pretend = 0, frame = 8
  31              		@ frame_needed = 0, uses_anonymous_args = 0
  32              		@ link register save eliminated.
  33              	.LVL0:
  34 0000 82B0     		sub	sp, sp, #8
  35              	.LCFI0:
  36              		.cfi_def_cfa_offset 8
 131:Src/tim.c     **** 
 132:Src/tim.c     ****   if(tim_pwmHandle->Instance==TIM2)
  37              		.loc 1 132 0
  38 0002 0368     		ldr	r3, [r0]
  39 0004 B3F1804F 		cmp	r3, #1073741824
  40 0008 04D0     		beq	.L5
ARM GAS  C:\Users\kotaro\AppData\Local\Temp\cc66vp1L.s 			page 4


 133:Src/tim.c     ****   {
 134:Src/tim.c     ****   /* USER CODE BEGIN TIM2_MspInit 0 */
 135:Src/tim.c     **** 
 136:Src/tim.c     ****   /* USER CODE END TIM2_MspInit 0 */
 137:Src/tim.c     ****     /* TIM2 clock enable */
 138:Src/tim.c     ****     __HAL_RCC_TIM2_CLK_ENABLE();
 139:Src/tim.c     ****   /* USER CODE BEGIN TIM2_MspInit 1 */
 140:Src/tim.c     **** 
 141:Src/tim.c     ****   /* USER CODE END TIM2_MspInit 1 */
 142:Src/tim.c     ****   }
 143:Src/tim.c     ****   else if(tim_pwmHandle->Instance==TIM4)
  41              		.loc 1 143 0
  42 000a 0F4A     		ldr	r2, .L7
  43 000c 9342     		cmp	r3, r2
  44 000e 0ED0     		beq	.L6
  45              	.L1:
 144:Src/tim.c     ****   {
 145:Src/tim.c     ****   /* USER CODE BEGIN TIM4_MspInit 0 */
 146:Src/tim.c     **** 
 147:Src/tim.c     ****   /* USER CODE END TIM4_MspInit 0 */
 148:Src/tim.c     ****     /* TIM4 clock enable */
 149:Src/tim.c     ****     __HAL_RCC_TIM4_CLK_ENABLE();
 150:Src/tim.c     ****   /* USER CODE BEGIN TIM4_MspInit 1 */
 151:Src/tim.c     **** 
 152:Src/tim.c     ****   /* USER CODE END TIM4_MspInit 1 */
 153:Src/tim.c     ****   }
 154:Src/tim.c     **** }
  46              		.loc 1 154 0
  47 0010 02B0     		add	sp, sp, #8
  48              	.LCFI1:
  49              		.cfi_remember_state
  50              		.cfi_def_cfa_offset 0
  51              		@ sp needed
  52 0012 7047     		bx	lr
  53              	.L5:
  54              	.LCFI2:
  55              		.cfi_restore_state
  56              	.LBB2:
 138:Src/tim.c     ****   /* USER CODE BEGIN TIM2_MspInit 1 */
  57              		.loc 1 138 0
  58 0014 0023     		movs	r3, #0
  59 0016 0093     		str	r3, [sp]
  60 0018 0C4B     		ldr	r3, .L7+4
  61 001a 1A6C     		ldr	r2, [r3, #64]
  62 001c 42F00102 		orr	r2, r2, #1
  63 0020 1A64     		str	r2, [r3, #64]
  64 0022 1B6C     		ldr	r3, [r3, #64]
  65 0024 03F00103 		and	r3, r3, #1
  66 0028 0093     		str	r3, [sp]
  67 002a 009B     		ldr	r3, [sp]
  68              	.LBE2:
  69 002c F0E7     		b	.L1
  70              	.L6:
  71              	.LBB3:
 149:Src/tim.c     ****   /* USER CODE BEGIN TIM4_MspInit 1 */
  72              		.loc 1 149 0
  73 002e 0023     		movs	r3, #0
ARM GAS  C:\Users\kotaro\AppData\Local\Temp\cc66vp1L.s 			page 5


  74 0030 0193     		str	r3, [sp, #4]
  75 0032 064B     		ldr	r3, .L7+4
  76 0034 1A6C     		ldr	r2, [r3, #64]
  77 0036 42F00402 		orr	r2, r2, #4
  78 003a 1A64     		str	r2, [r3, #64]
  79 003c 1B6C     		ldr	r3, [r3, #64]
  80 003e 03F00403 		and	r3, r3, #4
  81 0042 0193     		str	r3, [sp, #4]
  82 0044 019B     		ldr	r3, [sp, #4]
  83              	.LBE3:
  84              		.loc 1 154 0
  85 0046 E3E7     		b	.L1
  86              	.L8:
  87              		.align	2
  88              	.L7:
  89 0048 00080040 		.word	1073743872
  90 004c 00380240 		.word	1073887232
  91              		.cfi_endproc
  92              	.LFE161:
  94              		.section	.text.HAL_TIM_MspPostInit,"ax",%progbits
  95              		.align	1
  96              		.global	HAL_TIM_MspPostInit
  97              		.syntax unified
  98              		.thumb
  99              		.thumb_func
 100              		.fpu fpv4-sp-d16
 102              	HAL_TIM_MspPostInit:
 103              	.LFB162:
 155:Src/tim.c     **** void HAL_TIM_MspPostInit(TIM_HandleTypeDef* timHandle)
 156:Src/tim.c     **** {
 104              		.loc 1 156 0
 105              		.cfi_startproc
 106              		@ args = 0, pretend = 0, frame = 24
 107              		@ frame_needed = 0, uses_anonymous_args = 0
 108              	.LVL1:
 109 0000 00B5     		push	{lr}
 110              	.LCFI3:
 111              		.cfi_def_cfa_offset 4
 112              		.cfi_offset 14, -4
 113 0002 87B0     		sub	sp, sp, #28
 114              	.LCFI4:
 115              		.cfi_def_cfa_offset 32
 157:Src/tim.c     **** 
 158:Src/tim.c     ****   GPIO_InitTypeDef GPIO_InitStruct;
 159:Src/tim.c     ****   if(timHandle->Instance==TIM2)
 116              		.loc 1 159 0
 117 0004 0368     		ldr	r3, [r0]
 118 0006 B3F1804F 		cmp	r3, #1073741824
 119 000a 05D0     		beq	.L13
 160:Src/tim.c     ****   {
 161:Src/tim.c     ****   /* USER CODE BEGIN TIM2_MspPostInit 0 */
 162:Src/tim.c     **** 
 163:Src/tim.c     ****   /* USER CODE END TIM2_MspPostInit 0 */
 164:Src/tim.c     ****     /**TIM2 GPIO Configuration    
 165:Src/tim.c     ****     PA15     ------> TIM2_CH1 
 166:Src/tim.c     ****     */
 167:Src/tim.c     ****     GPIO_InitStruct.Pin = GPIO_PIN_15;
ARM GAS  C:\Users\kotaro\AppData\Local\Temp\cc66vp1L.s 			page 6


 168:Src/tim.c     ****     GPIO_InitStruct.Mode = GPIO_MODE_AF_PP;
 169:Src/tim.c     ****     GPIO_InitStruct.Pull = GPIO_NOPULL;
 170:Src/tim.c     ****     GPIO_InitStruct.Speed = GPIO_SPEED_FREQ_LOW;
 171:Src/tim.c     ****     GPIO_InitStruct.Alternate = GPIO_AF1_TIM2;
 172:Src/tim.c     ****     HAL_GPIO_Init(GPIOA, &GPIO_InitStruct);
 173:Src/tim.c     **** 
 174:Src/tim.c     ****   /* USER CODE BEGIN TIM2_MspPostInit 1 */
 175:Src/tim.c     **** 
 176:Src/tim.c     ****   /* USER CODE END TIM2_MspPostInit 1 */
 177:Src/tim.c     ****   }
 178:Src/tim.c     ****   else if(timHandle->Instance==TIM4)
 120              		.loc 1 178 0
 121 000c 114A     		ldr	r2, .L15
 122 000e 9342     		cmp	r3, r2
 123 0010 11D0     		beq	.L14
 124              	.LVL2:
 125              	.L9:
 179:Src/tim.c     ****   {
 180:Src/tim.c     ****   /* USER CODE BEGIN TIM4_MspPostInit 0 */
 181:Src/tim.c     **** 
 182:Src/tim.c     ****   /* USER CODE END TIM4_MspPostInit 0 */
 183:Src/tim.c     ****   
 184:Src/tim.c     ****     /**TIM4 GPIO Configuration    
 185:Src/tim.c     ****     PB7     ------> TIM4_CH2
 186:Src/tim.c     ****     PB9     ------> TIM4_CH4 
 187:Src/tim.c     ****     */
 188:Src/tim.c     ****     GPIO_InitStruct.Pin = GPIO_PIN_7|GPIO_PIN_9;
 189:Src/tim.c     ****     GPIO_InitStruct.Mode = GPIO_MODE_AF_PP;
 190:Src/tim.c     ****     GPIO_InitStruct.Pull = GPIO_NOPULL;
 191:Src/tim.c     ****     GPIO_InitStruct.Speed = GPIO_SPEED_FREQ_LOW;
 192:Src/tim.c     ****     GPIO_InitStruct.Alternate = GPIO_AF2_TIM4;
 193:Src/tim.c     ****     HAL_GPIO_Init(GPIOB, &GPIO_InitStruct);
 194:Src/tim.c     **** 
 195:Src/tim.c     ****   /* USER CODE BEGIN TIM4_MspPostInit 1 */
 196:Src/tim.c     **** 
 197:Src/tim.c     ****   /* USER CODE END TIM4_MspPostInit 1 */
 198:Src/tim.c     ****   }
 199:Src/tim.c     **** 
 200:Src/tim.c     **** }
 126              		.loc 1 200 0
 127 0012 07B0     		add	sp, sp, #28
 128              	.LCFI5:
 129              		.cfi_remember_state
 130              		.cfi_def_cfa_offset 4
 131              		@ sp needed
 132 0014 5DF804FB 		ldr	pc, [sp], #4
 133              	.LVL3:
 134              	.L13:
 135              	.LCFI6:
 136              		.cfi_restore_state
 167:Src/tim.c     ****     GPIO_InitStruct.Mode = GPIO_MODE_AF_PP;
 137              		.loc 1 167 0
 138 0018 4FF40043 		mov	r3, #32768
 139 001c 0193     		str	r3, [sp, #4]
 168:Src/tim.c     ****     GPIO_InitStruct.Pull = GPIO_NOPULL;
 140              		.loc 1 168 0
 141 001e 0223     		movs	r3, #2
ARM GAS  C:\Users\kotaro\AppData\Local\Temp\cc66vp1L.s 			page 7


 142 0020 0293     		str	r3, [sp, #8]
 169:Src/tim.c     ****     GPIO_InitStruct.Speed = GPIO_SPEED_FREQ_LOW;
 143              		.loc 1 169 0
 144 0022 0023     		movs	r3, #0
 145 0024 0393     		str	r3, [sp, #12]
 170:Src/tim.c     ****     GPIO_InitStruct.Alternate = GPIO_AF1_TIM2;
 146              		.loc 1 170 0
 147 0026 0493     		str	r3, [sp, #16]
 171:Src/tim.c     ****     HAL_GPIO_Init(GPIOA, &GPIO_InitStruct);
 148              		.loc 1 171 0
 149 0028 0123     		movs	r3, #1
 150 002a 0593     		str	r3, [sp, #20]
 172:Src/tim.c     **** 
 151              		.loc 1 172 0
 152 002c 01A9     		add	r1, sp, #4
 153 002e 0A48     		ldr	r0, .L15+4
 154              	.LVL4:
 155 0030 FFF7FEFF 		bl	HAL_GPIO_Init
 156              	.LVL5:
 157 0034 EDE7     		b	.L9
 158              	.LVL6:
 159              	.L14:
 188:Src/tim.c     ****     GPIO_InitStruct.Mode = GPIO_MODE_AF_PP;
 160              		.loc 1 188 0
 161 0036 4FF42073 		mov	r3, #640
 162 003a 0193     		str	r3, [sp, #4]
 189:Src/tim.c     ****     GPIO_InitStruct.Pull = GPIO_NOPULL;
 163              		.loc 1 189 0
 164 003c 0223     		movs	r3, #2
 165 003e 0293     		str	r3, [sp, #8]
 190:Src/tim.c     ****     GPIO_InitStruct.Speed = GPIO_SPEED_FREQ_LOW;
 166              		.loc 1 190 0
 167 0040 0022     		movs	r2, #0
 168 0042 0392     		str	r2, [sp, #12]
 191:Src/tim.c     ****     GPIO_InitStruct.Alternate = GPIO_AF2_TIM4;
 169              		.loc 1 191 0
 170 0044 0492     		str	r2, [sp, #16]
 192:Src/tim.c     ****     HAL_GPIO_Init(GPIOB, &GPIO_InitStruct);
 171              		.loc 1 192 0
 172 0046 0593     		str	r3, [sp, #20]
 193:Src/tim.c     **** 
 173              		.loc 1 193 0
 174 0048 01A9     		add	r1, sp, #4
 175 004a 0448     		ldr	r0, .L15+8
 176              	.LVL7:
 177 004c FFF7FEFF 		bl	HAL_GPIO_Init
 178              	.LVL8:
 179              		.loc 1 200 0
 180 0050 DFE7     		b	.L9
 181              	.L16:
 182 0052 00BF     		.align	2
 183              	.L15:
 184 0054 00080040 		.word	1073743872
 185 0058 00000240 		.word	1073872896
 186 005c 00040240 		.word	1073873920
 187              		.cfi_endproc
 188              	.LFE162:
ARM GAS  C:\Users\kotaro\AppData\Local\Temp\cc66vp1L.s 			page 8


 190              		.section	.text.MX_TIM2_Init,"ax",%progbits
 191              		.align	1
 192              		.global	MX_TIM2_Init
 193              		.syntax unified
 194              		.thumb
 195              		.thumb_func
 196              		.fpu fpv4-sp-d16
 198              	MX_TIM2_Init:
 199              	.LFB159:
  55:Src/tim.c     ****   TIM_MasterConfigTypeDef sMasterConfig;
 200              		.loc 1 55 0
 201              		.cfi_startproc
 202              		@ args = 0, pretend = 0, frame = 40
 203              		@ frame_needed = 0, uses_anonymous_args = 0
 204 0000 00B5     		push	{lr}
 205              	.LCFI7:
 206              		.cfi_def_cfa_offset 4
 207              		.cfi_offset 14, -4
 208 0002 8BB0     		sub	sp, sp, #44
 209              	.LCFI8:
 210              		.cfi_def_cfa_offset 48
  59:Src/tim.c     ****   htim2.Init.Prescaler = 0;
 211              		.loc 1 59 0
 212 0004 1A48     		ldr	r0, .L25
 213 0006 4FF08043 		mov	r3, #1073741824
 214 000a 0360     		str	r3, [r0]
  60:Src/tim.c     ****   htim2.Init.CounterMode = TIM_COUNTERMODE_UP;
 215              		.loc 1 60 0
 216 000c 0023     		movs	r3, #0
 217 000e 4360     		str	r3, [r0, #4]
  61:Src/tim.c     ****   htim2.Init.Period = 10;
 218              		.loc 1 61 0
 219 0010 8360     		str	r3, [r0, #8]
  62:Src/tim.c     ****   htim2.Init.ClockDivision = TIM_CLOCKDIVISION_DIV1;
 220              		.loc 1 62 0
 221 0012 0A22     		movs	r2, #10
 222 0014 C260     		str	r2, [r0, #12]
  63:Src/tim.c     ****   if (HAL_TIM_PWM_Init(&htim2) != HAL_OK)
 223              		.loc 1 63 0
 224 0016 0361     		str	r3, [r0, #16]
  64:Src/tim.c     ****   {
 225              		.loc 1 64 0
 226 0018 FFF7FEFF 		bl	HAL_TIM_PWM_Init
 227              	.LVL9:
 228 001c C0B9     		cbnz	r0, .L22
 229              	.L18:
  69:Src/tim.c     ****   sMasterConfig.MasterSlaveMode = TIM_MASTERSLAVEMODE_DISABLE;
 230              		.loc 1 69 0
 231 001e 0023     		movs	r3, #0
 232 0020 0893     		str	r3, [sp, #32]
  70:Src/tim.c     ****   if (HAL_TIMEx_MasterConfigSynchronization(&htim2, &sMasterConfig) != HAL_OK)
 233              		.loc 1 70 0
 234 0022 0993     		str	r3, [sp, #36]
  71:Src/tim.c     ****   {
 235              		.loc 1 71 0
 236 0024 08A9     		add	r1, sp, #32
 237 0026 1248     		ldr	r0, .L25
ARM GAS  C:\Users\kotaro\AppData\Local\Temp\cc66vp1L.s 			page 9


 238 0028 FFF7FEFF 		bl	HAL_TIMEx_MasterConfigSynchronization
 239              	.LVL10:
 240 002c A8B9     		cbnz	r0, .L23
 241              	.L19:
  76:Src/tim.c     ****   sConfigOC.Pulse = 0;
 242              		.loc 1 76 0
 243 002e 6023     		movs	r3, #96
 244 0030 0193     		str	r3, [sp, #4]
  77:Src/tim.c     ****   sConfigOC.OCPolarity = TIM_OCPOLARITY_HIGH;
 245              		.loc 1 77 0
 246 0032 0022     		movs	r2, #0
 247 0034 0292     		str	r2, [sp, #8]
  78:Src/tim.c     ****   sConfigOC.OCFastMode = TIM_OCFAST_DISABLE;
 248              		.loc 1 78 0
 249 0036 0392     		str	r2, [sp, #12]
  79:Src/tim.c     ****   if (HAL_TIM_PWM_ConfigChannel(&htim2, &sConfigOC, TIM_CHANNEL_1) != HAL_OK)
 250              		.loc 1 79 0
 251 0038 0592     		str	r2, [sp, #20]
  80:Src/tim.c     ****   {
 252              		.loc 1 80 0
 253 003a 01A9     		add	r1, sp, #4
 254 003c 0C48     		ldr	r0, .L25
 255 003e FFF7FEFF 		bl	HAL_TIM_PWM_ConfigChannel
 256              	.LVL11:
 257 0042 78B9     		cbnz	r0, .L24
 258              	.L20:
  85:Src/tim.c     **** 
 259              		.loc 1 85 0
 260 0044 0A48     		ldr	r0, .L25
 261 0046 FFF7FEFF 		bl	HAL_TIM_MspPostInit
 262              	.LVL12:
  87:Src/tim.c     **** /* TIM4 init function */
 263              		.loc 1 87 0
 264 004a 0BB0     		add	sp, sp, #44
 265              	.LCFI9:
 266              		.cfi_remember_state
 267              		.cfi_def_cfa_offset 4
 268              		@ sp needed
 269 004c 5DF804FB 		ldr	pc, [sp], #4
 270              	.L22:
 271              	.LCFI10:
 272              		.cfi_restore_state
  66:Src/tim.c     ****   }
 273              		.loc 1 66 0
 274 0050 4221     		movs	r1, #66
 275 0052 0848     		ldr	r0, .L25+4
 276 0054 FFF7FEFF 		bl	_Error_Handler
 277              	.LVL13:
 278 0058 E1E7     		b	.L18
 279              	.L23:
  73:Src/tim.c     ****   }
 280              		.loc 1 73 0
 281 005a 4921     		movs	r1, #73
 282 005c 0548     		ldr	r0, .L25+4
 283 005e FFF7FEFF 		bl	_Error_Handler
 284              	.LVL14:
 285 0062 E4E7     		b	.L19
ARM GAS  C:\Users\kotaro\AppData\Local\Temp\cc66vp1L.s 			page 10


 286              	.L24:
  82:Src/tim.c     ****   }
 287              		.loc 1 82 0
 288 0064 5221     		movs	r1, #82
 289 0066 0348     		ldr	r0, .L25+4
 290 0068 FFF7FEFF 		bl	_Error_Handler
 291              	.LVL15:
 292 006c EAE7     		b	.L20
 293              	.L26:
 294 006e 00BF     		.align	2
 295              	.L25:
 296 0070 00000000 		.word	htim2
 297 0074 00000000 		.word	.LC0
 298              		.cfi_endproc
 299              	.LFE159:
 301              		.section	.text.MX_TIM4_Init,"ax",%progbits
 302              		.align	1
 303              		.global	MX_TIM4_Init
 304              		.syntax unified
 305              		.thumb
 306              		.thumb_func
 307              		.fpu fpv4-sp-d16
 309              	MX_TIM4_Init:
 310              	.LFB160:
  90:Src/tim.c     ****   TIM_MasterConfigTypeDef sMasterConfig;
 311              		.loc 1 90 0
 312              		.cfi_startproc
 313              		@ args = 0, pretend = 0, frame = 40
 314              		@ frame_needed = 0, uses_anonymous_args = 0
 315 0000 00B5     		push	{lr}
 316              	.LCFI11:
 317              		.cfi_def_cfa_offset 4
 318              		.cfi_offset 14, -4
 319 0002 8BB0     		sub	sp, sp, #44
 320              	.LCFI12:
 321              		.cfi_def_cfa_offset 48
  94:Src/tim.c     ****   htim4.Init.Prescaler = 0;
 322              		.loc 1 94 0
 323 0004 2048     		ldr	r0, .L37
 324 0006 214B     		ldr	r3, .L37+4
 325 0008 0360     		str	r3, [r0]
  95:Src/tim.c     ****   htim4.Init.CounterMode = TIM_COUNTERMODE_UP;
 326              		.loc 1 95 0
 327 000a 0023     		movs	r3, #0
 328 000c 4360     		str	r3, [r0, #4]
  96:Src/tim.c     ****   htim4.Init.Period = 399;
 329              		.loc 1 96 0
 330 000e 8360     		str	r3, [r0, #8]
  97:Src/tim.c     ****   htim4.Init.ClockDivision = TIM_CLOCKDIVISION_DIV1;
 331              		.loc 1 97 0
 332 0010 40F28F12 		movw	r2, #399
 333 0014 C260     		str	r2, [r0, #12]
  98:Src/tim.c     ****   if (HAL_TIM_PWM_Init(&htim4) != HAL_OK)
 334              		.loc 1 98 0
 335 0016 0361     		str	r3, [r0, #16]
  99:Src/tim.c     ****   {
 336              		.loc 1 99 0
ARM GAS  C:\Users\kotaro\AppData\Local\Temp\cc66vp1L.s 			page 11


 337 0018 FFF7FEFF 		bl	HAL_TIM_PWM_Init
 338              	.LVL16:
 339 001c 00BB     		cbnz	r0, .L33
 340              	.L28:
 104:Src/tim.c     ****   sMasterConfig.MasterSlaveMode = TIM_MASTERSLAVEMODE_DISABLE;
 341              		.loc 1 104 0
 342 001e 0023     		movs	r3, #0
 343 0020 0893     		str	r3, [sp, #32]
 105:Src/tim.c     ****   if (HAL_TIMEx_MasterConfigSynchronization(&htim4, &sMasterConfig) != HAL_OK)
 344              		.loc 1 105 0
 345 0022 0993     		str	r3, [sp, #36]
 106:Src/tim.c     ****   {
 346              		.loc 1 106 0
 347 0024 08A9     		add	r1, sp, #32
 348 0026 1848     		ldr	r0, .L37
 349 0028 FFF7FEFF 		bl	HAL_TIMEx_MasterConfigSynchronization
 350              	.LVL17:
 351 002c E8B9     		cbnz	r0, .L34
 352              	.L29:
 111:Src/tim.c     ****   sConfigOC.Pulse = 0;
 353              		.loc 1 111 0
 354 002e 6023     		movs	r3, #96
 355 0030 0193     		str	r3, [sp, #4]
 112:Src/tim.c     ****   sConfigOC.OCPolarity = TIM_OCPOLARITY_HIGH;
 356              		.loc 1 112 0
 357 0032 0023     		movs	r3, #0
 358 0034 0293     		str	r3, [sp, #8]
 113:Src/tim.c     ****   sConfigOC.OCFastMode = TIM_OCFAST_DISABLE;
 359              		.loc 1 113 0
 360 0036 0393     		str	r3, [sp, #12]
 114:Src/tim.c     ****   if (HAL_TIM_PWM_ConfigChannel(&htim4, &sConfigOC, TIM_CHANNEL_2) != HAL_OK)
 361              		.loc 1 114 0
 362 0038 0593     		str	r3, [sp, #20]
 115:Src/tim.c     ****   {
 363              		.loc 1 115 0
 364 003a 0422     		movs	r2, #4
 365 003c 0DEB0201 		add	r1, sp, r2
 366 0040 1148     		ldr	r0, .L37
 367 0042 FFF7FEFF 		bl	HAL_TIM_PWM_ConfigChannel
 368              	.LVL18:
 369 0046 A8B9     		cbnz	r0, .L35
 370              	.L30:
 120:Src/tim.c     ****   {
 371              		.loc 1 120 0
 372 0048 0C22     		movs	r2, #12
 373 004a 01A9     		add	r1, sp, #4
 374 004c 0E48     		ldr	r0, .L37
 375 004e FFF7FEFF 		bl	HAL_TIM_PWM_ConfigChannel
 376              	.LVL19:
 377 0052 A0B9     		cbnz	r0, .L36
 378              	.L31:
 125:Src/tim.c     **** 
 379              		.loc 1 125 0
 380 0054 0C48     		ldr	r0, .L37
 381 0056 FFF7FEFF 		bl	HAL_TIM_MspPostInit
 382              	.LVL20:
 127:Src/tim.c     **** 
ARM GAS  C:\Users\kotaro\AppData\Local\Temp\cc66vp1L.s 			page 12


 383              		.loc 1 127 0
 384 005a 0BB0     		add	sp, sp, #44
 385              	.LCFI13:
 386              		.cfi_remember_state
 387              		.cfi_def_cfa_offset 4
 388              		@ sp needed
 389 005c 5DF804FB 		ldr	pc, [sp], #4
 390              	.L33:
 391              	.LCFI14:
 392              		.cfi_restore_state
 101:Src/tim.c     ****   }
 393              		.loc 1 101 0
 394 0060 6521     		movs	r1, #101
 395 0062 0B48     		ldr	r0, .L37+8
 396 0064 FFF7FEFF 		bl	_Error_Handler
 397              	.LVL21:
 398 0068 D9E7     		b	.L28
 399              	.L34:
 108:Src/tim.c     ****   }
 400              		.loc 1 108 0
 401 006a 6C21     		movs	r1, #108
 402 006c 0848     		ldr	r0, .L37+8
 403 006e FFF7FEFF 		bl	_Error_Handler
 404              	.LVL22:
 405 0072 DCE7     		b	.L29
 406              	.L35:
 117:Src/tim.c     ****   }
 407              		.loc 1 117 0
 408 0074 7521     		movs	r1, #117
 409 0076 0648     		ldr	r0, .L37+8
 410 0078 FFF7FEFF 		bl	_Error_Handler
 411              	.LVL23:
 412 007c E4E7     		b	.L30
 413              	.L36:
 122:Src/tim.c     ****   }
 414              		.loc 1 122 0
 415 007e 7A21     		movs	r1, #122
 416 0080 0348     		ldr	r0, .L37+8
 417 0082 FFF7FEFF 		bl	_Error_Handler
 418              	.LVL24:
 419 0086 E5E7     		b	.L31
 420              	.L38:
 421              		.align	2
 422              	.L37:
 423 0088 00000000 		.word	htim4
 424 008c 00080040 		.word	1073743872
 425 0090 00000000 		.word	.LC0
 426              		.cfi_endproc
 427              	.LFE160:
 429              		.section	.text.HAL_TIM_PWM_MspDeInit,"ax",%progbits
 430              		.align	1
 431              		.global	HAL_TIM_PWM_MspDeInit
 432              		.syntax unified
 433              		.thumb
 434              		.thumb_func
 435              		.fpu fpv4-sp-d16
 437              	HAL_TIM_PWM_MspDeInit:
ARM GAS  C:\Users\kotaro\AppData\Local\Temp\cc66vp1L.s 			page 13


 438              	.LFB163:
 201:Src/tim.c     **** 
 202:Src/tim.c     **** void HAL_TIM_PWM_MspDeInit(TIM_HandleTypeDef* tim_pwmHandle)
 203:Src/tim.c     **** {
 439              		.loc 1 203 0
 440              		.cfi_startproc
 441              		@ args = 0, pretend = 0, frame = 0
 442              		@ frame_needed = 0, uses_anonymous_args = 0
 443              		@ link register save eliminated.
 444              	.LVL25:
 204:Src/tim.c     **** 
 205:Src/tim.c     ****   if(tim_pwmHandle->Instance==TIM2)
 445              		.loc 1 205 0
 446 0000 0368     		ldr	r3, [r0]
 447 0002 B3F1804F 		cmp	r3, #1073741824
 448 0006 03D0     		beq	.L42
 206:Src/tim.c     ****   {
 207:Src/tim.c     ****   /* USER CODE BEGIN TIM2_MspDeInit 0 */
 208:Src/tim.c     **** 
 209:Src/tim.c     ****   /* USER CODE END TIM2_MspDeInit 0 */
 210:Src/tim.c     ****     /* Peripheral clock disable */
 211:Src/tim.c     ****     __HAL_RCC_TIM2_CLK_DISABLE();
 212:Src/tim.c     ****   /* USER CODE BEGIN TIM2_MspDeInit 1 */
 213:Src/tim.c     **** 
 214:Src/tim.c     ****   /* USER CODE END TIM2_MspDeInit 1 */
 215:Src/tim.c     ****   }
 216:Src/tim.c     ****   else if(tim_pwmHandle->Instance==TIM4)
 449              		.loc 1 216 0
 450 0008 084A     		ldr	r2, .L44
 451 000a 9342     		cmp	r3, r2
 452 000c 06D0     		beq	.L43
 453              	.L39:
 217:Src/tim.c     ****   {
 218:Src/tim.c     ****   /* USER CODE BEGIN TIM4_MspDeInit 0 */
 219:Src/tim.c     **** 
 220:Src/tim.c     ****   /* USER CODE END TIM4_MspDeInit 0 */
 221:Src/tim.c     ****     /* Peripheral clock disable */
 222:Src/tim.c     ****     __HAL_RCC_TIM4_CLK_DISABLE();
 223:Src/tim.c     ****   /* USER CODE BEGIN TIM4_MspDeInit 1 */
 224:Src/tim.c     **** 
 225:Src/tim.c     ****   /* USER CODE END TIM4_MspDeInit 1 */
 226:Src/tim.c     ****   }
 227:Src/tim.c     **** } 
 454              		.loc 1 227 0
 455 000e 7047     		bx	lr
 456              	.L42:
 211:Src/tim.c     ****   /* USER CODE BEGIN TIM2_MspDeInit 1 */
 457              		.loc 1 211 0
 458 0010 074A     		ldr	r2, .L44+4
 459 0012 136C     		ldr	r3, [r2, #64]
 460 0014 23F00103 		bic	r3, r3, #1
 461 0018 1364     		str	r3, [r2, #64]
 462 001a 7047     		bx	lr
 463              	.L43:
 222:Src/tim.c     ****   /* USER CODE BEGIN TIM4_MspDeInit 1 */
 464              		.loc 1 222 0
 465 001c 02F50C32 		add	r2, r2, #143360
ARM GAS  C:\Users\kotaro\AppData\Local\Temp\cc66vp1L.s 			page 14


 466 0020 136C     		ldr	r3, [r2, #64]
 467 0022 23F00403 		bic	r3, r3, #4
 468 0026 1364     		str	r3, [r2, #64]
 469              		.loc 1 227 0
 470 0028 F1E7     		b	.L39
 471              	.L45:
 472 002a 00BF     		.align	2
 473              	.L44:
 474 002c 00080040 		.word	1073743872
 475 0030 00380240 		.word	1073887232
 476              		.cfi_endproc
 477              	.LFE163:
 479              		.section	.text.MotorStop,"ax",%progbits
 480              		.align	1
 481              		.global	MotorStop
 482              		.syntax unified
 483              		.thumb
 484              		.thumb_func
 485              		.fpu fpv4-sp-d16
 487              	MotorStop:
 488              	.LFB164:
 228:Src/tim.c     **** 
 229:Src/tim.c     **** /* USER CODE BEGIN 1 */
 230:Src/tim.c     **** void MotorStop(void){
 489              		.loc 1 230 0
 490              		.cfi_startproc
 491              		@ args = 0, pretend = 0, frame = 0
 492              		@ frame_needed = 0, uses_anonymous_args = 0
 493 0000 10B5     		push	{r4, lr}
 494              	.LCFI15:
 495              		.cfi_def_cfa_offset 8
 496              		.cfi_offset 4, -8
 497              		.cfi_offset 14, -4
 231:Src/tim.c     ****   //left
 232:Src/tim.c     ****   HAL_TIM_PWM_Stop(&htim4, TIM_CHANNEL_1);
 498              		.loc 1 232 0
 499 0002 054C     		ldr	r4, .L48
 500 0004 0021     		movs	r1, #0
 501 0006 2046     		mov	r0, r4
 502 0008 FFF7FEFF 		bl	HAL_TIM_PWM_Stop
 503              	.LVL26:
 233:Src/tim.c     ****   //right
 234:Src/tim.c     ****   HAL_TIM_PWM_Stop(&htim4, TIM_CHANNEL_3);
 504              		.loc 1 234 0
 505 000c 0821     		movs	r1, #8
 506 000e 2046     		mov	r0, r4
 507 0010 FFF7FEFF 		bl	HAL_TIM_PWM_Stop
 508              	.LVL27:
 235:Src/tim.c     **** }
 509              		.loc 1 235 0
 510 0014 10BD     		pop	{r4, pc}
 511              	.L49:
 512 0016 00BF     		.align	2
 513              	.L48:
 514 0018 00000000 		.word	htim4
 515              		.cfi_endproc
 516              	.LFE164:
ARM GAS  C:\Users\kotaro\AppData\Local\Temp\cc66vp1L.s 			page 15


 518              		.section	.text.MotorControl,"ax",%progbits
 519              		.align	1
 520              		.global	MotorControl
 521              		.syntax unified
 522              		.thumb
 523              		.thumb_func
 524              		.fpu fpv4-sp-d16
 526              	MotorControl:
 527              	.LFB165:
 236:Src/tim.c     **** 
 237:Src/tim.c     **** void MotorControl(int32_t left_pwm, int32_t right_pwm)
 238:Src/tim.c     **** {
 528              		.loc 1 238 0
 529              		.cfi_startproc
 530              		@ args = 0, pretend = 0, frame = 0
 531              		@ frame_needed = 0, uses_anonymous_args = 0
 532              	.LVL28:
 533 0000 38B5     		push	{r3, r4, r5, lr}
 534              	.LCFI16:
 535              		.cfi_def_cfa_offset 16
 536              		.cfi_offset 3, -16
 537              		.cfi_offset 4, -12
 538              		.cfi_offset 5, -8
 539              		.cfi_offset 14, -4
 540 0002 0C46     		mov	r4, r1
 541              	.LVL29:
 239:Src/tim.c     ****   uint32_t pwm_l_buff = 0;
 240:Src/tim.c     ****   uint32_t pwm_r_buff = 0;
 241:Src/tim.c     **** 
 242:Src/tim.c     ****   sConfigOC.OCMode = TIM_OCMODE_PWM1;
 542              		.loc 1 242 0
 543 0004 2F4B     		ldr	r3, .L68
 544 0006 6022     		movs	r2, #96
 545 0008 1A60     		str	r2, [r3]
 243:Src/tim.c     ****   sConfigOC.OCPolarity = TIM_OCPOLARITY_HIGH;
 546              		.loc 1 243 0
 547 000a 0022     		movs	r2, #0
 548 000c 9A60     		str	r2, [r3, #8]
 244:Src/tim.c     ****   sConfigOC.OCFastMode = TIM_OCFAST_DISABLE;
 549              		.loc 1 244 0
 550 000e 1A61     		str	r2, [r3, #16]
 245:Src/tim.c     **** 
 246:Src/tim.c     ****   // TODO å›žè»¢æ–¹å‘ã«ã‚ˆã£ã¦å‡¦?????????¿½?¿½??¿½?¿½???¿½?¿½??¿½?¿½????¿½?¿½??¿½?¿½???¿½?¿½??
 247:Src/tim.c     ****   // motor l
 248:Src/tim.c     ****   if ( left_pwm >= 0 ){
 551              		.loc 1 248 0
 552 0010 051E     		subs	r5, r0, #0
 553 0012 2FDB     		blt	.L51
 554              	.LVL30:
 249:Src/tim.c     ****     pwm_l_buff = left_pwm;
 250:Src/tim.c     ****     HAL_GPIO_WritePin( left_cw_GPIO_Port, left_cw_Pin, GPIO_PIN_SET );
 555              		.loc 1 250 0
 556 0014 0122     		movs	r2, #1
 557 0016 4FF48071 		mov	r1, #256
 558              	.LVL31:
 559 001a 2B48     		ldr	r0, .L68+4
 560              	.LVL32:
ARM GAS  C:\Users\kotaro\AppData\Local\Temp\cc66vp1L.s 			page 16


 561 001c FFF7FEFF 		bl	HAL_GPIO_WritePin
 562              	.LVL33:
 563              	.L52:
 251:Src/tim.c     ****   } else {
 252:Src/tim.c     ****     pwm_l_buff = -1 * left_pwm;
 253:Src/tim.c     ****     HAL_GPIO_WritePin( left_cw_GPIO_Port, left_cw_Pin, GPIO_PIN_RESET );
 254:Src/tim.c     ****   }
 255:Src/tim.c     **** 
 256:Src/tim.c     ****   // motor
 257:Src/tim.c     ****   if ( right_pwm >= 0 ){
 564              		.loc 1 257 0
 565 0020 002C     		cmp	r4, #0
 566 0022 2FDB     		blt	.L53
 567              	.LVL34:
 258:Src/tim.c     ****     pwm_r_buff = right_pwm;
 259:Src/tim.c     ****     HAL_GPIO_WritePin( right_cw_GPIO_Port, right_cw_Pin, GPIO_PIN_RESET );
 568              		.loc 1 259 0
 569 0024 0022     		movs	r2, #0
 570 0026 4021     		movs	r1, #64
 571 0028 2748     		ldr	r0, .L68+4
 572 002a FFF7FEFF 		bl	HAL_GPIO_WritePin
 573              	.LVL35:
 574              	.L54:
 260:Src/tim.c     ****   } else {
 261:Src/tim.c     ****     pwm_r_buff = -1 * right_pwm;
 262:Src/tim.c     ****     HAL_GPIO_WritePin( right_cw_GPIO_Port, right_cw_Pin, GPIO_PIN_SET );
 263:Src/tim.c     ****   }
 264:Src/tim.c     **** 
 265:Src/tim.c     ****   if ( pwm_l_buff > 399 ){
 575              		.loc 1 265 0
 576 002e B5F5C87F 		cmp	r5, #400
 577 0032 01D3     		bcc	.L55
 266:Src/tim.c     ****     pwm_l_buff = 399;
 578              		.loc 1 266 0
 579 0034 40F28F15 		movw	r5, #399
 580              	.LVL36:
 581              	.L55:
 267:Src/tim.c     ****   }
 268:Src/tim.c     **** 
 269:Src/tim.c     ****   if ( pwm_r_buff > 399 ){
 582              		.loc 1 269 0
 583 0038 B4F5C87F 		cmp	r4, #400
 584 003c 01D3     		bcc	.L56
 270:Src/tim.c     ****     pwm_r_buff = 399;
 585              		.loc 1 270 0
 586 003e 40F28F14 		movw	r4, #399
 587              	.LVL37:
 588              	.L56:
 271:Src/tim.c     ****   }
 272:Src/tim.c     **** 
 273:Src/tim.c     ****   // set duty
 274:Src/tim.c     ****   sConfigOC.Pulse = pwm_r_buff; 
 589              		.loc 1 274 0
 590 0042 2049     		ldr	r1, .L68
 591 0044 4C60     		str	r4, [r1, #4]
 275:Src/tim.c     ****   if (HAL_TIM_PWM_ConfigChannel(&htim4, &sConfigOC, TIM_CHANNEL_2) != HAL_OK){
 592              		.loc 1 275 0
ARM GAS  C:\Users\kotaro\AppData\Local\Temp\cc66vp1L.s 			page 17


 593 0046 0422     		movs	r2, #4
 594 0048 2048     		ldr	r0, .L68+8
 595 004a FFF7FEFF 		bl	HAL_TIM_PWM_ConfigChannel
 596              	.LVL38:
 597 004e 00BB     		cbnz	r0, .L64
 598              	.L57:
 276:Src/tim.c     **** 		Error_Handler();
 277:Src/tim.c     **** 	}
 278:Src/tim.c     **** 
 279:Src/tim.c     ****   sConfigOC.Pulse = pwm_l_buff; 
 599              		.loc 1 279 0
 600 0050 1C49     		ldr	r1, .L68
 601 0052 4D60     		str	r5, [r1, #4]
 280:Src/tim.c     ****   if (HAL_TIM_PWM_ConfigChannel(&htim4, &sConfigOC, TIM_CHANNEL_4) != HAL_OK){
 602              		.loc 1 280 0
 603 0054 0C22     		movs	r2, #12
 604 0056 1D48     		ldr	r0, .L68+8
 605 0058 FFF7FEFF 		bl	HAL_TIM_PWM_ConfigChannel
 606              	.LVL39:
 607 005c F8B9     		cbnz	r0, .L65
 608              	.L58:
 281:Src/tim.c     **** 		Error_Handler();
 282:Src/tim.c     **** 	}
 283:Src/tim.c     **** 
 284:Src/tim.c     **** 	if (HAL_TIM_PWM_Start(&htim4, TIM_CHANNEL_2) != HAL_OK){
 609              		.loc 1 284 0
 610 005e 0421     		movs	r1, #4
 611 0060 1A48     		ldr	r0, .L68+8
 612 0062 FFF7FEFF 		bl	HAL_TIM_PWM_Start
 613              	.LVL40:
 614 0066 00BB     		cbnz	r0, .L66
 615              	.L59:
 285:Src/tim.c     **** 		Error_Handler();
 286:Src/tim.c     **** 	}
 287:Src/tim.c     **** 
 288:Src/tim.c     ****   if (HAL_TIM_PWM_Start(&htim4, TIM_CHANNEL_4) != HAL_OK){
 616              		.loc 1 288 0
 617 0068 0C21     		movs	r1, #12
 618 006a 1848     		ldr	r0, .L68+8
 619 006c FFF7FEFF 		bl	HAL_TIM_PWM_Start
 620              	.LVL41:
 621 0070 08BB     		cbnz	r0, .L67
 622              	.L50:
 289:Src/tim.c     **** 		Error_Handler();
 290:Src/tim.c     **** 	}
 291:Src/tim.c     **** }
 623              		.loc 1 291 0
 624 0072 38BD     		pop	{r3, r4, r5, pc}
 625              	.LVL42:
 626              	.L51:
 252:Src/tim.c     ****     HAL_GPIO_WritePin( left_cw_GPIO_Port, left_cw_Pin, GPIO_PIN_RESET );
 627              		.loc 1 252 0
 628 0074 6D42     		negs	r5, r5
 629              	.LVL43:
 253:Src/tim.c     ****   }
 630              		.loc 1 253 0
 631 0076 0022     		movs	r2, #0
ARM GAS  C:\Users\kotaro\AppData\Local\Temp\cc66vp1L.s 			page 18


 632 0078 4FF48071 		mov	r1, #256
 633              	.LVL44:
 634 007c 1248     		ldr	r0, .L68+4
 635              	.LVL45:
 636 007e FFF7FEFF 		bl	HAL_GPIO_WritePin
 637              	.LVL46:
 638 0082 CDE7     		b	.L52
 639              	.LVL47:
 640              	.L53:
 261:Src/tim.c     ****     HAL_GPIO_WritePin( right_cw_GPIO_Port, right_cw_Pin, GPIO_PIN_SET );
 641              		.loc 1 261 0
 642 0084 6442     		negs	r4, r4
 643              	.LVL48:
 262:Src/tim.c     ****   }
 644              		.loc 1 262 0
 645 0086 0122     		movs	r2, #1
 646 0088 4021     		movs	r1, #64
 647 008a 0F48     		ldr	r0, .L68+4
 648 008c FFF7FEFF 		bl	HAL_GPIO_WritePin
 649              	.LVL49:
 650 0090 CDE7     		b	.L54
 651              	.LVL50:
 652              	.L64:
 276:Src/tim.c     **** 	}
 653              		.loc 1 276 0
 654 0092 4FF48A71 		mov	r1, #276
 655 0096 0E48     		ldr	r0, .L68+12
 656 0098 FFF7FEFF 		bl	_Error_Handler
 657              	.LVL51:
 658 009c D8E7     		b	.L57
 659              	.L65:
 281:Src/tim.c     **** 	}
 660              		.loc 1 281 0
 661 009e 40F21911 		movw	r1, #281
 662 00a2 0B48     		ldr	r0, .L68+12
 663 00a4 FFF7FEFF 		bl	_Error_Handler
 664              	.LVL52:
 665 00a8 D9E7     		b	.L58
 666              	.L66:
 285:Src/tim.c     **** 	}
 667              		.loc 1 285 0
 668 00aa 40F21D11 		movw	r1, #285
 669 00ae 0848     		ldr	r0, .L68+12
 670 00b0 FFF7FEFF 		bl	_Error_Handler
 671              	.LVL53:
 672 00b4 D8E7     		b	.L59
 673              	.L67:
 289:Src/tim.c     **** 	}
 674              		.loc 1 289 0
 675 00b6 40F22111 		movw	r1, #289
 676 00ba 0548     		ldr	r0, .L68+12
 677 00bc FFF7FEFF 		bl	_Error_Handler
 678              	.LVL54:
 679              		.loc 1 291 0
 680 00c0 D7E7     		b	.L50
 681              	.L69:
 682 00c2 00BF     		.align	2
ARM GAS  C:\Users\kotaro\AppData\Local\Temp\cc66vp1L.s 			page 19


 683              	.L68:
 684 00c4 00000000 		.word	sConfigOC
 685 00c8 00040240 		.word	1073873920
 686 00cc 00000000 		.word	htim4
 687 00d0 00000000 		.word	.LC0
 688              		.cfi_endproc
 689              	.LFE165:
 691              		.section	.text.Tim_FanPwm,"ax",%progbits
 692              		.align	1
 693              		.global	Tim_FanPwm
 694              		.syntax unified
 695              		.thumb
 696              		.thumb_func
 697              		.fpu fpv4-sp-d16
 699              	Tim_FanPwm:
 700              	.LFB166:
 292:Src/tim.c     **** 
 293:Src/tim.c     **** 
 294:Src/tim.c     **** void Tim_FanPwm(uint16_t vol)//0~3
 295:Src/tim.c     **** {
 701              		.loc 1 295 0
 702              		.cfi_startproc
 703              		@ args = 0, pretend = 0, frame = 0
 704              		@ frame_needed = 0, uses_anonymous_args = 0
 705              	.LVL55:
 706 0000 08B5     		push	{r3, lr}
 707              	.LCFI17:
 708              		.cfi_def_cfa_offset 8
 709              		.cfi_offset 3, -8
 710              		.cfi_offset 14, -4
 296:Src/tim.c     ****   sConfigOC.OCMode = TIM_OCMODE_PWM1;
 711              		.loc 1 296 0
 712 0002 0E49     		ldr	r1, .L76
 713 0004 6023     		movs	r3, #96
 714 0006 0B60     		str	r3, [r1]
 297:Src/tim.c     ****   sConfigOC.OCPolarity = TIM_OCPOLARITY_HIGH;
 715              		.loc 1 297 0
 716 0008 0022     		movs	r2, #0
 717 000a 8A60     		str	r2, [r1, #8]
 298:Src/tim.c     ****   sConfigOC.OCFastMode = TIM_OCFAST_DISABLE;
 718              		.loc 1 298 0
 719 000c 0A61     		str	r2, [r1, #16]
 299:Src/tim.c     ****   sConfigOC.Pulse = vol;
 720              		.loc 1 299 0
 721 000e 4860     		str	r0, [r1, #4]
 300:Src/tim.c     ****   if (HAL_TIM_PWM_ConfigChannel(&htim2, &sConfigOC, TIM_CHANNEL_1) != HAL_OK)
 722              		.loc 1 300 0
 723 0010 0B48     		ldr	r0, .L76+4
 724              	.LVL56:
 725 0012 FFF7FEFF 		bl	HAL_TIM_PWM_ConfigChannel
 726              	.LVL57:
 727 0016 28B9     		cbnz	r0, .L74
 728              	.L71:
 301:Src/tim.c     ****   {
 302:Src/tim.c     ****     _Error_Handler(__FILE__, __LINE__);
 303:Src/tim.c     ****   }
 304:Src/tim.c     **** 
ARM GAS  C:\Users\kotaro\AppData\Local\Temp\cc66vp1L.s 			page 20


 305:Src/tim.c     ****   if (HAL_TIM_PWM_Start(&htim2, TIM_CHANNEL_1 != HAL_OK))
 729              		.loc 1 305 0
 730 0018 0021     		movs	r1, #0
 731 001a 0948     		ldr	r0, .L76+4
 732 001c FFF7FEFF 		bl	HAL_TIM_PWM_Start
 733              	.LVL58:
 734 0020 30B9     		cbnz	r0, .L75
 735              	.L70:
 306:Src/tim.c     ****   {
 307:Src/tim.c     ****     Error_Handler();
 308:Src/tim.c     ****   }
 309:Src/tim.c     **** }
 736              		.loc 1 309 0
 737 0022 08BD     		pop	{r3, pc}
 738              	.L74:
 302:Src/tim.c     ****   }
 739              		.loc 1 302 0
 740 0024 4FF49771 		mov	r1, #302
 741 0028 0648     		ldr	r0, .L76+8
 742 002a FFF7FEFF 		bl	_Error_Handler
 743              	.LVL59:
 744 002e F3E7     		b	.L71
 745              	.L75:
 307:Src/tim.c     ****   }
 746              		.loc 1 307 0
 747 0030 40F23311 		movw	r1, #307
 748 0034 0348     		ldr	r0, .L76+8
 749 0036 FFF7FEFF 		bl	_Error_Handler
 750              	.LVL60:
 751              		.loc 1 309 0
 752 003a F2E7     		b	.L70
 753              	.L77:
 754              		.align	2
 755              	.L76:
 756 003c 00000000 		.word	sConfigOC
 757 0040 00000000 		.word	htim2
 758 0044 00000000 		.word	.LC0
 759              		.cfi_endproc
 760              	.LFE166:
 762              		.comm	htim4,60,4
 763              		.comm	htim2,60,4
 764              		.comm	sConfigOC,28,4
 765              		.comm	sMasterConfig,8,4
 766              		.section	.rodata.MX_TIM2_Init.str1.4,"aMS",%progbits,1
 767              		.align	2
 768              	.LC0:
 769 0000 5372632F 		.ascii	"Src/tim.c\000"
 769      74696D2E 
 769      6300
 770              		.text
 771              	.Letext0:
 772              		.file 2 "c:\\program files (x86)\\gnu tools arm embedded\\7 2017-q4-major\\arm-none-eabi\\include\
 773              		.file 3 "c:\\program files (x86)\\gnu tools arm embedded\\7 2017-q4-major\\arm-none-eabi\\include\
 774              		.file 4 "Drivers/CMSIS/Include/core_cm4.h"
 775              		.file 5 "Drivers/CMSIS/Device/ST/STM32F4xx/Include/system_stm32f4xx.h"
 776              		.file 6 "Drivers/CMSIS/Device/ST/STM32F4xx/Include/stm32f411xe.h"
 777              		.file 7 "c:\\program files (x86)\\gnu tools arm embedded\\7 2017-q4-major\\arm-none-eabi\\include\
ARM GAS  C:\Users\kotaro\AppData\Local\Temp\cc66vp1L.s 			page 21


 778              		.file 8 "c:\\program files (x86)\\gnu tools arm embedded\\7 2017-q4-major\\arm-none-eabi\\include\
 779              		.file 9 "c:\\program files (x86)\\gnu tools arm embedded\\7 2017-q4-major\\lib\\gcc\\arm-none-eabi
 780              		.file 10 "c:\\program files (x86)\\gnu tools arm embedded\\7 2017-q4-major\\arm-none-eabi\\include
 781              		.file 11 "Drivers/STM32F4xx_HAL_Driver/Inc/stm32f4xx_hal_def.h"
 782              		.file 12 "Drivers/STM32F4xx_HAL_Driver/Inc/stm32f4xx_hal_gpio.h"
 783              		.file 13 "Drivers/STM32F4xx_HAL_Driver/Inc/stm32f4xx_hal_dma.h"
 784              		.file 14 "Drivers/STM32F4xx_HAL_Driver/Inc/stm32f4xx_hal_tim.h"
 785              		.file 15 "Drivers/STM32F4xx_HAL_Driver/Inc/stm32f4xx_hal_tim_ex.h"
 786              		.file 16 "Inc/tim.h"
 787              		.file 17 "c:\\program files (x86)\\gnu tools arm embedded\\7 2017-q4-major\\arm-none-eabi\\include
ARM GAS  C:\Users\kotaro\AppData\Local\Temp\cc66vp1L.s 			page 22

